target datalayout = "e-m:e-p270:32:32-p271:32:32-p272:64:64-i64:64-i128:128-f80:128-n8:16:32:64-S128"
target triple = "x86_64-pc-linux-gnu"

%class.SpaceInfo = type { ptr, ptr, ptr, ptr, %class.SplitInfo }
%class.SplitInfo = type { i64, i64, ptr, i32, ptr, ptr }
%class.MemRegion = type { ptr, i64 }
%class.ParMarkBitMap = type { ptr, i64, %class.BitMapView, ptr, i64 }
%class.BitMapView = type { %class.BitMap }
%class.BitMap = type { ptr, i64 }
%class.ParallelCompactData = type { ptr, ptr, i64, ptr, i64 }
%class.MutableSpace = type { ptr, %class.MemRegion, i64, ptr, ptr, ptr }
%class.MoveAndUpdateClosure = type { ptr, ptr, i64, ptr, ptr, ptr, i64 }

@_ZN17PSParallelCompact11_space_infoE = hidden global [4 x %class.SpaceInfo] zeroinitializer, align 16
@_ZN17PSParallelCompact12_mark_bitmapE = hidden global %class.ParMarkBitMap zeroinitializer, align 8
@_ZN17PSParallelCompact13_summary_dataE = hidden global %class.ParallelCompactData zeroinitializer, align 8
@_ZTV20MoveAndUpdateClosure = hidden unnamed_addr constant { [3 x ptr] } { [3 x ptr] [ptr null, ptr null, ptr @_ZN20MoveAndUpdateClosure15complete_regionEPP12HeapWordImplPN19ParallelCompactData10RegionDataE] }, align 8

; Function Attrs: mustprogress nounwind uwtable
define linkonce_odr hidden noundef i64 @_Z13pointer_deltaPVKvS0_m(ptr noundef %0, ptr noundef %1, i64 noundef %2) #1 comdat {
  %4 = alloca ptr, align 8
  %5 = alloca ptr, align 8
  %6 = alloca i64, align 8
  store ptr %0, ptr %4, align 8
  store ptr %1, ptr %5, align 8
  store i64 %2, ptr %6, align 8
  %7 = load ptr, ptr %4, align 8
  %8 = ptrtoint ptr %7 to i64
  %9 = load ptr, ptr %5, align 8
  %10 = ptrtoint ptr %9 to i64
  %11 = sub i64 %8, %10
  %12 = load i64, ptr %6, align 8
  %13 = udiv i64 %11, %12
  ret i64 %13
}

; Function Attrs: mustprogress nounwind uwtable
define linkonce_odr hidden noundef ptr @_ZNK9SpaceInfo7new_topEv(ptr noundef nonnull align 8 dereferenceable(80) %0) #1 comdat align 2 {
  %2 = alloca ptr, align 8
  store ptr %0, ptr %2, align 8
  %3 = load ptr, ptr %2, align 8
  %4 = getelementptr inbounds %class.SpaceInfo, ptr %3, i32 0, i32 1
  %5 = load ptr, ptr %4, align 8
  ret ptr %5
}

; Function Attrs: mustprogress nounwind uwtable
define linkonce_odr hidden noundef ptr @_ZNK9SpaceInfo11start_arrayEv(ptr noundef nonnull align 8 dereferenceable(80) %0) #1 comdat align 2 {
  %2 = alloca ptr, align 8
  store ptr %0, ptr %2, align 8
  %3 = load ptr, ptr %2, align 8
  %4 = getelementptr inbounds %class.SpaceInfo, ptr %3, i32 0, i32 3
  %5 = load ptr, ptr %4, align 8
  ret ptr %5
}

; Function Attrs: mustprogress nounwind uwtable
define linkonce_odr hidden noundef zeroext i1 @_ZNK12MutableSpace8containsEPKv(ptr noundef nonnull align 8 dereferenceable(56) %0, ptr noundef %1) #1 comdat align 2 {
  %3 = alloca ptr, align 8
  %4 = alloca ptr, align 8
  store ptr %0, ptr %3, align 8
  store ptr %1, ptr %4, align 8
  %5 = load ptr, ptr %3, align 8
  %6 = getelementptr inbounds %class.MutableSpace, ptr %5, i32 0, i32 3
  %7 = load ptr, ptr %6, align 8
  %8 = load ptr, ptr %4, align 8
  %9 = icmp ule ptr %7, %8
  br i1 %9, label %10, label %15

10:                                               ; preds = %2
  %11 = load ptr, ptr %4, align 8
  %12 = getelementptr inbounds %class.MutableSpace, ptr %5, i32 0, i32 5
  %13 = load ptr, ptr %12, align 8
  %14 = icmp ult ptr %11, %13
  br label %15

15:                                               ; preds = %10, %2
  %16 = phi i1 [ false, %2 ], [ %14, %10 ]
  ret i1 %16
}

; Function Attrs: mustprogress nounwind uwtable
define linkonce_odr hidden noundef ptr @_ZNK9SpaceInfo5spaceEv(ptr noundef nonnull align 8 dereferenceable(80) %0) #1 comdat align 2 {
  %2 = alloca ptr, align 8
  store ptr %0, ptr %2, align 8
  %3 = load ptr, ptr %2, align 8
  %4 = getelementptr inbounds %class.SpaceInfo, ptr %3, i32 0, i32 0
  %5 = load ptr, ptr %4, align 8
  ret ptr %5
}

; Function Attrs: mustprogress nounwind uwtable
define linkonce_odr hidden noundef i64 @_Z4MIN2ImET_S0_S0_(i64 noundef %0, i64 noundef %1) #1 comdat {
  %3 = alloca i64, align 8
  %4 = alloca i64, align 8
  store i64 %0, ptr %3, align 8
  store i64 %1, ptr %4, align 8
  %5 = load i64, ptr %3, align 8
  %6 = load i64, ptr %4, align 8
  %7 = icmp ult i64 %5, %6
  br i1 %7, label %8, label %10

8:                                                ; preds = %2
  %9 = load i64, ptr %3, align 8
  br label %12

10:                                               ; preds = %2
  %11 = load i64, ptr %4, align 8
  br label %12

12:                                               ; preds = %10, %8
  %13 = phi i64 [ %9, %8 ], [ %11, %10 ]
  ret i64 %13
}

; Function Attrs: mustprogress nounwind uwtable
define linkonce_odr hidden noundef i64 @_Z13pointer_deltaPKP12HeapWordImplS2_(ptr noundef %0, ptr noundef %1) #1 comdat {
  %3 = alloca ptr, align 8
  %4 = alloca ptr, align 8
  store ptr %0, ptr %3, align 8
  store ptr %1, ptr %4, align 8
  %5 = load ptr, ptr %3, align 8
  %6 = load ptr, ptr %4, align 8
  %7 = call noundef i64 @_Z13pointer_deltaPVKvS0_m(ptr noundef %5, ptr noundef %6, i64 noundef 8)
  ret i64 %7
}

; Function Attrs: mustprogress nounwind uwtable
define linkonce_odr hidden noundef ptr @_ZN17PSParallelCompact7new_topENS_7SpaceIdE(i32 noundef %0) #1 comdat align 2 {
  %2 = alloca i32, align 4
  store i32 %0, ptr %2, align 4
  %3 = load i32, ptr %2, align 4
  %4 = zext i32 %3 to i64
  %5 = getelementptr inbounds [4 x %class.SpaceInfo], ptr @_ZN17PSParallelCompact11_space_infoE, i64 0, i64 %4
  %6 = call noundef ptr @_ZNK9SpaceInfo7new_topEv(ptr noundef nonnull align 8 dereferenceable(80) %5)
  ret ptr %6
}

; Function Attrs: mustprogress nounwind uwtable
define linkonce_odr hidden noundef ptr @_ZN17PSParallelCompact11start_arrayENS_7SpaceIdE(i32 noundef %0) #1 comdat align 2 {
  %2 = alloca i32, align 4
  store i32 %0, ptr %2, align 4
  %3 = load i32, ptr %2, align 4
  %4 = zext i32 %3 to i64
  %5 = getelementptr inbounds [4 x %class.SpaceInfo], ptr @_ZN17PSParallelCompact11_space_infoE, i64 0, i64 %4
  %6 = call noundef ptr @_ZNK9SpaceInfo11start_arrayEv(ptr noundef nonnull align 8 dereferenceable(80) %5)
  ret ptr %6
}

; Function Attrs: mustprogress nounwind uwtable
define hidden noundef i32 @_ZN17PSParallelCompact8space_idEPP12HeapWordImpl(ptr noundef %0) #1 align 2 {
  %2 = alloca i32, align 4
  %3 = alloca ptr, align 8
  %4 = alloca i32, align 4
  store ptr %0, ptr %3, align 8
  store i32 0, ptr %4, align 4
  br label %5

5:                                                ; preds = %18, %1
  %6 = load i32, ptr %4, align 4
  %7 = icmp ult i32 %6, 4
  br i1 %7, label %8, label %21

8:                                                ; preds = %5
  %9 = load i32, ptr %4, align 4
  %10 = zext i32 %9 to i64
  %11 = getelementptr inbounds [4 x %class.SpaceInfo], ptr @_ZN17PSParallelCompact11_space_infoE, i64 0, i64 %10
  %12 = call noundef ptr @_ZNK9SpaceInfo5spaceEv(ptr noundef nonnull align 8 dereferenceable(80) %11)
  %13 = load ptr, ptr %3, align 8
  %14 = call noundef zeroext i1 @_ZNK12MutableSpace8containsEPKv(ptr noundef nonnull align 8 dereferenceable(56) %12, ptr noundef %13)
  br i1 %14, label %15, label %17

15:                                               ; preds = %8
  %16 = load i32, ptr %4, align 4
  store i32 %16, ptr %2, align 4
  br label %22

17:                                               ; preds = %8
  br label %18

18:                                               ; preds = %17
  %19 = load i32, ptr %4, align 4
  %20 = add i32 %19, 1
  store i32 %20, ptr %4, align 4
  br label %5, !llvm.loop !30

21:                                               ; preds = %5
  store i32 4, ptr %2, align 4
  br label %22

22:                                               ; preds = %21, %15
  %23 = load i32, ptr %2, align 4
  ret i32 %23
}

; Function Attrs: mustprogress nounwind uwtable
define linkonce_odr hidden noundef ptr @_ZNK19ParallelCompactData14region_to_addrEm(ptr noundef nonnull align 8 dereferenceable(40) %0, i64 noundef %1) #1 comdat align 2 {
  %3 = alloca ptr, align 8
  %4 = alloca i64, align 8
  store ptr %0, ptr %3, align 8
  store i64 %1, ptr %4, align 8
  %5 = load ptr, ptr %3, align 8
  %6 = getelementptr inbounds %class.ParallelCompactData, ptr %5, i32 0, i32 0
  %7 = load ptr, ptr %6, align 8
  %8 = load i64, ptr %4, align 8
  %9 = shl i64 %8, 16
  %10 = getelementptr inbounds ptr, ptr %7, i64 %9
  ret ptr %10
}

; Function Attrs: mustprogress nounwind uwtable
define linkonce_odr hidden noundef nonnull align 8 dereferenceable(40) ptr @_ZN17PSParallelCompact12summary_dataEv() #1 comdat align 2 {
  ret ptr @_ZN17PSParallelCompact13_summary_dataE
}

; Function Attrs: mustprogress nounwind uwtable
define linkonce_odr hidden noundef i64 @_ZN20MoveAndUpdateClosure25calculate_words_remainingEm(i64 noundef %0) #1 comdat align 2 {
  %2 = alloca i64, align 8
  %3 = alloca ptr, align 8
  %4 = alloca i32, align 4
  %5 = alloca ptr, align 8
  store i64 %0, ptr %2, align 8
  %6 = call noundef nonnull align 8 dereferenceable(40) ptr @_ZN17PSParallelCompact12summary_dataEv()
  %7 = load i64, ptr %2, align 8
  %8 = call noundef ptr @_ZNK19ParallelCompactData14region_to_addrEm(ptr noundef nonnull align 8 dereferenceable(40) %6, i64 noundef %7)
  store ptr %8, ptr %3, align 8
  %9 = load ptr, ptr %3, align 8
  %10 = call noundef i32 @_ZN17PSParallelCompact8space_idEPP12HeapWordImpl(ptr noundef %9)
  store i32 %10, ptr %4, align 4
  %11 = load i32, ptr %4, align 4
  %12 = call noundef ptr @_ZN17PSParallelCompact7new_topENS_7SpaceIdE(i32 noundef %11)
  store ptr %12, ptr %5, align 8
  %13 = load ptr, ptr %5, align 8
  %14 = load ptr, ptr %3, align 8
  %15 = call noundef i64 @_Z13pointer_deltaPKP12HeapWordImplS2_(ptr noundef %13, ptr noundef %14)
  %16 = call noundef i64 @_Z4MIN2ImET_S0_S0_(i64 noundef %15, i64 noundef 65536)
  ret i64 %16
}

; Function Attrs: mustprogress nounwind uwtable
define linkonce_odr hidden void @_ZN20MoveAndUpdateClosureC2EP13ParMarkBitMapm(ptr noundef nonnull align 8 dereferenceable(56) %0, ptr noundef %1, i64 noundef %2) unnamed_addr #1 comdat align 2 {
  %4 = alloca ptr, align 8
  %5 = alloca ptr, align 8
  %6 = alloca i64, align 8
  store ptr %0, ptr %4, align 8
  store ptr %1, ptr %5, align 8
  store i64 %2, ptr %6, align 8
  %7 = load ptr, ptr %4, align 8
  store ptr getelementptr inbounds inrange(-16, 8) ({ [3 x ptr] }, ptr @_ZTV20MoveAndUpdateClosure, i32 0, i32 0, i32 2), ptr %7, align 8
  %8 = getelementptr inbounds %class.MoveAndUpdateClosure, ptr %7, i32 0, i32 1
  %9 = load ptr, ptr %5, align 8
  store ptr %9, ptr %8, align 8
  %10 = getelementptr inbounds %class.MoveAndUpdateClosure, ptr %7, i32 0, i32 2
  %11 = load i64, ptr %6, align 8
  %12 = call noundef i64 @_ZN20MoveAndUpdateClosure25calculate_words_remainingEm(i64 noundef %11)
  store i64 %12, ptr %10, align 8
  %13 = getelementptr inbounds %class.MoveAndUpdateClosure, ptr %7, i32 0, i32 3
  store ptr null, ptr %13, align 8
  %14 = getelementptr inbounds %class.MoveAndUpdateClosure, ptr %7, i32 0, i32 4
  %15 = call noundef nonnull align 8 dereferenceable(40) ptr @_ZN17PSParallelCompact12summary_dataEv()
  %16 = load i64, ptr %6, align 8
  %17 = call noundef ptr @_ZNK19ParallelCompactData14region_to_addrEm(ptr noundef nonnull align 8 dereferenceable(40) %15, i64 noundef %16)
  store ptr %17, ptr %14, align 8
  %18 = getelementptr inbounds %class.MoveAndUpdateClosure, ptr %7, i32 0, i32 5
  %19 = getelementptr inbounds %class.MoveAndUpdateClosure, ptr %7, i32 0, i32 4
  %20 = load ptr, ptr %19, align 8
  %21 = call noundef i32 @_ZN17PSParallelCompact8space_idEPP12HeapWordImpl(ptr noundef %20)
  %22 = call noundef ptr @_ZN17PSParallelCompact11start_arrayENS_7SpaceIdE(i32 noundef %21)
  store ptr %22, ptr %18, align 8
  %23 = getelementptr inbounds %class.MoveAndUpdateClosure, ptr %7, i32 0, i32 6
  store i64 0, ptr %23, align 8
  ret void
}

; Function Attrs: mustprogress nounwind uwtable
define linkonce_odr hidden noundef ptr @_ZN17PSParallelCompact11mark_bitmapEv() #1 comdat align 2 {
  ret ptr @_ZN17PSParallelCompact12_mark_bitmapE
}

; Function Attrs: mustprogress nounwind uwtable
define hidden void @_ZN17PSParallelCompact22fill_and_update_regionEP20ParCompactionManagerm(ptr noundef %0, i64 noundef %1) #1 align 2 {
  %3 = alloca ptr, align 8
  %4 = alloca i64, align 8
  %5 = alloca %class.MoveAndUpdateClosure, align 8
  store ptr %0, ptr %3, align 8
  store i64 %1, ptr %4, align 8
  %6 = call noundef ptr @_ZN17PSParallelCompact11mark_bitmapEv()
  %7 = load i64, ptr %4, align 8
  call void @_ZN20MoveAndUpdateClosureC2EP13ParMarkBitMapm(ptr noundef nonnull align 8 dereferenceable(56) %5, ptr noundef %6, i64 noundef %7)
  %8 = load ptr, ptr %3, align 8
  %9 = load i64, ptr %4, align 8
  call void @_ZN17PSParallelCompact11fill_regionEP20ParCompactionManagerR20MoveAndUpdateClosurem(ptr noundef %8, ptr noundef nonnull align 8 dereferenceable(56) %5, i64 noundef %9)
  ret void
}