; Function Attrs: mustprogress nounwind uwtable
define hidden void @_ZN17PSParallelCompact22fill_and_update_regionEP20ParCompactionManagerm(ptr noundef %0, i64 noundef %1) local_unnamed_addr #0 align 2 {
  %3 = alloca %class.MoveAndUpdateClosure, align 8
  store ptr getelementptr inbounds inrange(-16, 8) (i8, ptr @_ZTV20MoveAndUpdateClosure, i64 16), ptr %3, align 8
  %4 = getelementptr inbounds i8, ptr %3, i64 8
  store ptr @_ZN17PSParallelCompact12_mark_bitmapE, ptr %4, align 8
  %5 = getelementptr inbounds i8, ptr %3, i64 16
  %6 = load ptr, ptr @_ZN17PSParallelCompact13_summary_dataE, align 8
  %.idx.i.i.i = shl i64 %1, 19
  %7 = getelementptr inbounds i8, ptr %6, i64 %.idx.i.i.i
  br label %8

8:                                                ; preds = %17, %2
  %indvars.iv.i.i.i = phi i64 [ 0, %2 ], [ %indvars.iv.next.i.i.i, %17 ]
  %9 = getelementptr inbounds [4 x %class.SpaceInfo], ptr @_ZN17PSParallelCompact11_space_infoE, i64 0, i64 %indvars.iv.i.i.i
  %10 = load ptr, ptr %9, align 16
  %11 = getelementptr inbounds i8, ptr %10, i64 32
  %12 = load ptr, ptr %11, align 8
  %.not.i.i.i.i = icmp ule ptr %12, %7
  %13 = getelementptr inbounds i8, ptr %10, i64 48
  %14 = load ptr, ptr %13, align 8
  %15 = icmp ugt ptr %14, %7
  %16 = select i1 %.not.i.i.i.i, i1 %15, i1 false
  br i1 %16, label %.split.loop.exit8.i.i.i, label %17

17:                                               ; preds = %8
  %indvars.iv.next.i.i.i = add nuw nsw i64 %indvars.iv.i.i.i, 1
  %exitcond.not.i.i.i = icmp eq i64 %indvars.iv.next.i.i.i, 4
  br i1 %exitcond.not.i.i.i, label %_ZN20MoveAndUpdateClosure25calculate_words_remainingEm.exit.i, label %8, !llvm.loop !41

.split.loop.exit8.i.i.i:                          ; preds = %8
  %18 = and i64 %indvars.iv.i.i.i, 4294967295
  br label %_ZN20MoveAndUpdateClosure25calculate_words_remainingEm.exit.i

_ZN20MoveAndUpdateClosure25calculate_words_remainingEm.exit.i: ; preds = %17, %.split.loop.exit8.i.i.i
  %.05.i.i.i = phi i64 [ %18, %.split.loop.exit8.i.i.i ], [ 4, %17 ]
  %19 = getelementptr inbounds [4 x %class.SpaceInfo], ptr @_ZN17PSParallelCompact11_space_infoE, i64 0, i64 %.05.i.i.i, i32 1
  %20 = load ptr, ptr %19, align 8
  %21 = ptrtoint ptr %20 to i64
  %22 = ptrtoint ptr %7 to i64
  %23 = sub i64 %21, %22
  %24 = lshr i64 %23, 3
  %25 = tail call noundef i64 @llvm.umin.i64(i64 %24, i64 65536)
  store i64 %25, ptr %5, align 8
  %26 = getelementptr inbounds i8, ptr %3, i64 24
  store ptr null, ptr %26, align 8
  %27 = getelementptr inbounds i8, ptr %3, i64 32
  store ptr %7, ptr %27, align 8
  br label %28

28:                                               ; preds = %37, %_ZN20MoveAndUpdateClosure25calculate_words_remainingEm.exit.i
  %indvars.iv.i.i = phi i64 [ 0, %_ZN20MoveAndUpdateClosure25calculate_words_remainingEm.exit.i ], [ %indvars.iv.next.i.i, %37 ]
  %29 = getelementptr inbounds [4 x %class.SpaceInfo], ptr @_ZN17PSParallelCompact11_space_infoE, i64 0, i64 %indvars.iv.i.i
  %30 = load ptr, ptr %29, align 16
  %31 = getelementptr inbounds i8, ptr %30, i64 32
  %32 = load ptr, ptr %31, align 8
  %.not.i.i.i = icmp ule ptr %32, %7
  %33 = getelementptr inbounds i8, ptr %30, i64 48
  %34 = load ptr, ptr %33, align 8
  %35 = icmp ugt ptr %34, %7
  %36 = select i1 %.not.i.i.i, i1 %35, i1 false
  br i1 %36, label %.split.loop.exit8.i.i, label %37

37:                                               ; preds = %28
  %indvars.iv.next.i.i = add nuw nsw i64 %indvars.iv.i.i, 1
  %exitcond.not.i.i = icmp eq i64 %indvars.iv.next.i.i, 4
  br i1 %exitcond.not.i.i, label %_ZN20MoveAndUpdateClosureC2EP13ParMarkBitMapm.exit, label %28, !llvm.loop !41

.split.loop.exit8.i.i:                            ; preds = %28
  %38 = and i64 %indvars.iv.i.i, 4294967295
  br label %_ZN20MoveAndUpdateClosureC2EP13ParMarkBitMapm.exit

_ZN20MoveAndUpdateClosureC2EP13ParMarkBitMapm.exit: ; preds = %37, %.split.loop.exit8.i.i
  %.05.i.i = phi i64 [ %38, %.split.loop.exit8.i.i ], [ 4, %37 ]
  %39 = getelementptr inbounds i8, ptr %3, i64 40
  %40 = getelementptr inbounds [4 x %class.SpaceInfo], ptr @_ZN17PSParallelCompact11_space_infoE, i64 0, i64 %.05.i.i, i32 3
  %41 = load ptr, ptr %40, align 8
  store ptr %41, ptr %39, align 8
  %42 = getelementptr inbounds i8, ptr %3, i64 48
  store i64 0, ptr %42, align 8
  call void @_ZN17PSParallelCompact11fill_regionEP20ParCompactionManagerR20MoveAndUpdateClosurem(ptr noundef %0, ptr noundef nonnull align 8 dereferenceable(56) %3, i64 noundef %1)
  ret void
}